target datalayout = "e-m:e-p270:32:32-p271:32:32-p272:64:64-i64:64-i128:128-f80:128-n8:16:32:64-S128"
target triple = "x86_64-pc-linux-gnu"

%"class.base::File" = type <{ %"class.base::ScopedGeneric", [4 x i8], %"class.base::FilePath", [4 x i8], i32, i8, i8, [6 x i8] }>
%"class.base::ScopedGeneric" = type { %"struct.base::ScopedGeneric<int, base::internal::ScopedFDCloseTraits>::Data" }
%"struct.base::ScopedGeneric<int, base::internal::ScopedFDCloseTraits>::Data" = type { i32 }
%"class.base::FilePath" = type { %"class.std::__cxx11::basic_string" }
%"class.std::__cxx11::basic_string" = type { %"struct.std::__cxx11::basic_string<char>::_Alloc_hider", i64, %union.anon }
%"struct.std::__cxx11::basic_string<char>::_Alloc_hider" = type { ptr }
%union.anon = type { i64, [8 x i8] }
%"class.base::FileTracing::ScopedTrace" = type { ptr, ptr }

@.str.15 = private unnamed_addr constant [16 x i8] c"File::Duplicate\00", align 1

; Function Attrs: mustprogress nounwind uwtable
define linkonce_odr noundef i32 @_ZN4base8internal19ScopedFDCloseTraits12InvalidValueEv() #4 comdat align 2 {
  ret i32 -1
}

; Function Attrs: mustprogress nounwind uwtable
define linkonce_odr noundef nonnull align 4 dereferenceable(4) ptr @_ZNK4base13ScopedGenericIiNS_8internal19ScopedFDCloseTraitsEE3getEv(ptr noundef nonnull align 4 dereferenceable(4) %0) #4 comdat align 2 {
  %2 = alloca ptr, align 8
  store ptr %0, ptr %2, align 8, !tbaa !36
  %3 = load ptr, ptr %2, align 8
  %4 = getelementptr inbounds nuw %"class.base::ScopedGeneric", ptr %3, i32 0, i32 0
  %5 = getelementptr inbounds nuw %"struct.base::ScopedGeneric<int, base::internal::ScopedFDCloseTraits>::Data", ptr %4, i32 0, i32 0
  ret ptr %5
}

; Function Attrs: mustprogress nounwind uwtable
define linkonce_odr noundef zeroext i1 @_ZNK4base13ScopedGenericIiNS_8internal19ScopedFDCloseTraitsEE8is_validEv(ptr noundef nonnull align 4 dereferenceable(4) %0) #4 comdat align 2 {
  %2 = alloca ptr, align 8
  store ptr %0, ptr %2, align 8, !tbaa !36
  %3 = load ptr, ptr %2, align 8
  %4 = getelementptr inbounds nuw %"class.base::ScopedGeneric", ptr %3, i32 0, i32 0
  %5 = getelementptr inbounds nuw %"struct.base::ScopedGeneric<int, base::internal::ScopedFDCloseTraits>::Data", ptr %4, i32 0, i32 0
  %6 = load i32, ptr %5, align 4, !tbaa !38
  %7 = call noundef i32 @_ZN4base8internal19ScopedFDCloseTraits12InvalidValueEv()
  %8 = icmp ne i32 %6, %7
  ret i1 %8
}

; Function Attrs: mustprogress nounwind uwtable
define linkonce_odr noundef zeroext i1 @_ZNK4base4File5asyncEv(ptr noundef nonnull align 8 dereferenceable(50) %0) #4 comdat align 2 {
  %2 = alloca ptr, align 8
  store ptr %0, ptr %2, align 8, !tbaa !34
  %3 = load ptr, ptr %2, align 8
  %4 = getelementptr inbounds nuw %"class.base::File", ptr %3, i32 0, i32 6
  %5 = load i8, ptr %4, align 1, !tbaa !79, !range !70, !noundef !71
  %6 = trunc i8 %5 to i1
  ret i1 %6
}

; Function Attrs: mustprogress uwtable
define noundef i32 @_ZNK4base4File15GetPlatformFileEv(ptr noundef nonnull align 8 dereferenceable(50) %0) #0 align 2 {
  %2 = alloca ptr, align 8
  store ptr %0, ptr %2, align 8, !tbaa !34
  %3 = load ptr, ptr %2, align 8
  %4 = getelementptr inbounds nuw %"class.base::File", ptr %3, i32 0, i32 0
  %5 = call noundef nonnull align 4 dereferenceable(4) ptr @_ZNK4base13ScopedGenericIiNS_8internal19ScopedFDCloseTraitsEE3getEv(ptr noundef nonnull align 4 dereferenceable(4) %4)
  %6 = load i32, ptr %5, align 4, !tbaa !41
  ret i32 %6
}

; Function Attrs: mustprogress uwtable
define noundef zeroext i1 @_ZNK4base4File7IsValidEv(ptr noundef nonnull align 8 dereferenceable(50) %0) #0 align 2 {
  %2 = alloca ptr, align 8
  store ptr %0, ptr %2, align 8, !tbaa !34
  %3 = load ptr, ptr %2, align 8
  %4 = getelementptr inbounds nuw %"class.base::File", ptr %3, i32 0, i32 0
  %5 = call noundef zeroext i1 @_ZNK4base13ScopedGenericIiNS_8internal19ScopedFDCloseTraitsEE8is_validEv(ptr noundef nonnull align 4 dereferenceable(4) %4)
  ret i1 %5
}

; Function Attrs: mustprogress uwtable
define void @_ZNK4base4File9DuplicateEv(ptr dead_on_unwind noalias writable sret(%"class.base::File") align 8 %0, ptr noundef nonnull align 8 dereferenceable(50) %1) #0 align 2 personality ptr @__gxx_personality_v0 {
  %3 = alloca ptr, align 8
  %4 = alloca ptr, align 8
  %5 = alloca %"class.base::FileTracing::ScopedTrace", align 8
  %6 = alloca ptr, align 8
  %7 = alloca i32, align 4
  %8 = alloca i32, align 4
  %9 = alloca i32, align 4
  %10 = alloca i1, align 1
  store ptr %0, ptr %3, align 8
  store ptr %1, ptr %4, align 8, !tbaa !34
  %11 = load ptr, ptr %4, align 8
  %12 = call noundef zeroext i1 @_ZNK4base4File7IsValidEv(ptr noundef nonnull align 8 dereferenceable(50) %11)
  br i1 %12, label %14, label %13

13:                                               ; preds = %2
  call void @_ZN4base4FileC1Ev(ptr noundef nonnull align 8 dereferenceable(50) %0)
  br label %57

14:                                               ; preds = %2
  call void @llvm.lifetime.start.p0(i64 16, ptr %5) #14
  call void @_ZN4base11FileTracing11ScopedTraceC1Ev(ptr noundef nonnull align 8 dereferenceable(16) %5)
  %15 = invoke noundef zeroext i1 @_ZN4base11FileTracing17IsCategoryEnabledEv()
          to label %16 unwind label %19

16:                                               ; preds = %14
  br i1 %15, label %17, label %23

17:                                               ; preds = %16
  invoke void @_ZN4base11FileTracing11ScopedTrace10InitializeEPKcPKNS_4FileEl(ptr noundef nonnull align 8 dereferenceable(16) %5, ptr noundef @.str.15, ptr noundef %11, i64 noundef 0)
          to label %18 unwind label %19

18:                                               ; preds = %17
  br label %23

19:                                               ; preds = %17, %14
  %20 = landingpad { ptr, i32 }
          cleanup
  %21 = extractvalue { ptr, i32 } %20, 0
  store ptr %21, ptr %6, align 8
  %22 = extractvalue { ptr, i32 } %20, 1
  store i32 %22, ptr %7, align 4
  br label %56

23:                                               ; preds = %18, %16
  call void @llvm.lifetime.start.p0(i64 4, ptr %8) #14
  %24 = invoke noundef i32 @_ZNK4base4File15GetPlatformFileEv(ptr noundef nonnull align 8 dereferenceable(50) %11)
          to label %25 unwind label %35

25:                                               ; preds = %23
  %26 = call i32 @dup(i32 noundef %24) #14
  store i32 %26, ptr %8, align 4, !tbaa !41
  %27 = load i32, ptr %8, align 4, !tbaa !41
  %28 = icmp eq i32 %27, -1
  br i1 %28, label %29, label %39

29:                                               ; preds = %25
  %30 = call ptr @__errno_location() #16
  %31 = load i32, ptr %30, align 4, !tbaa !41
  %32 = invoke noundef i32 @_ZN4base4File18OSErrorToFileErrorEi(i32 noundef %31)
          to label %33 unwind label %35

33:                                               ; preds = %29
  invoke void @_ZN4base4FileC1ENS0_5ErrorE(ptr noundef nonnull align 8 dereferenceable(50) %0, i32 noundef %32)
          to label %34 unwind label %35

34:                                               ; preds = %33
  store i32 1, ptr %9, align 4
  br label %54

35:                                               ; preds = %39, %33, %29, %23
  %36 = landingpad { ptr, i32 }
          cleanup
  %37 = extractvalue { ptr, i32 } %36, 0
  store ptr %37, ptr %6, align 8
  %38 = extractvalue { ptr, i32 } %36, 1
  store i32 %38, ptr %7, align 4
  br label %55

39:                                               ; preds = %25
  store i1 false, ptr %10, align 1
  %40 = load i32, ptr %8, align 4, !tbaa !41
  invoke void @_ZN4base4FileC1Ei(ptr noundef nonnull align 8 dereferenceable(50) %0, i32 noundef %40)
          to label %41 unwind label %35

41:                                               ; preds = %39
  %42 = invoke noundef zeroext i1 @_ZNK4base4File5asyncEv(ptr noundef nonnull align 8 dereferenceable(50) %11)
          to label %43 unwind label %46

43:                                               ; preds = %41
  br i1 %42, label %44, label %50

44:                                               ; preds = %43
  %45 = getelementptr inbounds nuw %"class.base::File", ptr %0, i32 0, i32 6
  store i8 1, ptr %45, align 1, !tbaa !79
  br label %50

46:                                               ; preds = %41
  %47 = landingpad { ptr, i32 }
          cleanup
  %48 = extractvalue { ptr, i32 } %47, 0
  store ptr %48, ptr %6, align 8
  %49 = extractvalue { ptr, i32 } %47, 1
  store i32 %49, ptr %7, align 4
  call void @_ZN4base4FileD1Ev(ptr noundef nonnull align 8 dereferenceable(50) %0) #14
  br label %55

50:                                               ; preds = %44, %43
  store i1 true, ptr %10, align 1
  store i32 1, ptr %9, align 4
  %51 = load i1, ptr %10, align 1
  br i1 %51, label %53, label %52

52:                                               ; preds = %50
  call void @_ZN4base4FileD1Ev(ptr noundef nonnull align 8 dereferenceable(50) %0) #14
  br label %53

53:                                               ; preds = %52, %50
  br label %54

54:                                               ; preds = %53, %34
  call void @llvm.lifetime.end.p0(i64 4, ptr %8) #14
  call void @_ZN4base11FileTracing11ScopedTraceD1Ev(ptr noundef nonnull align 8 dereferenceable(16) %5) #14
  call void @llvm.lifetime.end.p0(i64 16, ptr %5) #14
  br label %57

55:                                               ; preds = %46, %35
  call void @llvm.lifetime.end.p0(i64 4, ptr %8) #14
  br label %56

56:                                               ; preds = %55, %19
  call void @_ZN4base11FileTracing11ScopedTraceD1Ev(ptr noundef nonnull align 8 dereferenceable(16) %5) #14
  call void @llvm.lifetime.end.p0(i64 16, ptr %5) #14
  br label %58

57:                                               ; preds = %54, %13
  ret void

58:                                               ; preds = %56
  %59 = load ptr, ptr %6, align 8
  %60 = load i32, ptr %7, align 4
  %61 = insertvalue { ptr, i32 } poison, ptr %59, 0
  %62 = insertvalue { ptr, i32 } %61, i32 %60, 1
  resume { ptr, i32 } %62
}