; Function Attrs: mustprogress uwtable
define void @_ZNK4base4File9DuplicateEv(ptr dead_on_unwind noalias writable sret(%"class.base::File") align 8 %0, ptr noundef nonnull align 8 dereferenceable(50) %1) local_unnamed_addr #0 align 2 personality ptr @__gxx_personality_v0 {
  %3 = alloca %"class.base::FileTracing::ScopedTrace", align 8
  %4 = load i32, ptr %1, align 8, !tbaa !24
  %.not = icmp eq i32 %4, -1
  br i1 %.not, label %5, label %6

5:                                                ; preds = %2
  tail call void @_ZN4base4FileC1Ev(ptr noundef nonnull align 8 dereferenceable(50) %0)
  br label %32

6:                                                ; preds = %2
  call void @llvm.lifetime.start.p0(i64 16, ptr nonnull %3) #14
  call void @_ZN4base11FileTracing11ScopedTraceC1Ev(ptr noundef nonnull align 8 dereferenceable(16) %3)
  %7 = invoke noundef zeroext i1 @_ZN4base11FileTracing17IsCategoryEnabledEv()
          to label %8 unwind label %10

8:                                                ; preds = %6
  br i1 %7, label %9, label %12

9:                                                ; preds = %8
  invoke void @_ZN4base11FileTracing11ScopedTrace10InitializeEPKcPKNS_4FileEl(ptr noundef nonnull align 8 dereferenceable(16) %3, ptr noundef nonnull @.str.15, ptr noundef nonnull %1, i64 noundef 0)
          to label %12 unwind label %10

10:                                               ; preds = %9, %6
  %11 = landingpad { ptr, i32 }
          cleanup
  br label %31

12:                                               ; preds = %8, %9
  %13 = load i32, ptr %1, align 8, !tbaa !27
  %14 = call i32 @dup(i32 noundef %13) #14
  %15 = icmp eq i32 %14, -1
  br i1 %15, label %16, label %23

16:                                               ; preds = %12
  %17 = tail call ptr @__errno_location() #15
  %18 = load i32, ptr %17, align 4, !tbaa !27
  %19 = invoke noundef i32 @_ZN4base4File18OSErrorToFileErrorEi(i32 noundef %18)
          to label %20 unwind label %21

20:                                               ; preds = %16
  invoke void @_ZN4base4FileC1ENS0_5ErrorE(ptr noundef nonnull align 8 dereferenceable(50) %0, i32 noundef %19)
          to label %30 unwind label %21

21:                                               ; preds = %23, %20, %16
  %22 = landingpad { ptr, i32 }
          cleanup
  br label %31

23:                                               ; preds = %12
  invoke void @_ZN4base4FileC1Ei(ptr noundef nonnull align 8 dereferenceable(50) %0, i32 noundef %14)
          to label %24 unwind label %21

24:                                               ; preds = %23
  %25 = getelementptr inbounds nuw i8, ptr %1, i64 49
  %26 = load i8, ptr %25, align 1, !tbaa !48, !range !57, !noundef !58
  %27 = trunc nuw i8 %26 to i1
  br i1 %27, label %28, label %30

28:                                               ; preds = %24
  %29 = getelementptr inbounds nuw i8, ptr %0, i64 49
  store i8 1, ptr %29, align 1, !tbaa !48
  br label %30

30:                                               ; preds = %24, %28, %20
  call void @_ZN4base11FileTracing11ScopedTraceD1Ev(ptr noundef nonnull align 8 dereferenceable(16) %3) #14
  call void @llvm.lifetime.end.p0(i64 16, ptr nonnull %3) #14
  br label %32

31:                                               ; preds = %21, %10
  %.pn = phi { ptr, i32 } [ %22, %21 ], [ %11, %10 ]
  call void @_ZN4base11FileTracing11ScopedTraceD1Ev(ptr noundef nonnull align 8 dereferenceable(16) %3) #14
  call void @llvm.lifetime.end.p0(i64 16, ptr nonnull %3) #14
  resume { ptr, i32 } %.pn

32:                                               ; preds = %30, %5
  ret void
}